; Function Attrs: nounwind uwtable
define hidden void @initChildStuff(i32 noundef %0, i32 noundef %1, ptr noundef %2) local_unnamed_addr #5 {
  %4 = alloca i32, align 4
  %5 = alloca i32, align 4
  %6 = alloca i32, align 4
  %7 = alloca i32, align 4
  %8 = alloca i32, align 4
  %9 = alloca i32, align 4
  %10 = alloca i32, align 4
  %11 = alloca i32, align 4
  %12 = alloca %struct._SpawnInfo, align 4
  %13 = alloca i32, align 4
  %14 = call i64 @readFully(i32 noundef %0, ptr noundef nonnull %13, i64 noundef 4) #12
  %15 = and i64 %14, 4294967295
  %.not = icmp eq i64 %15, 4
  br i1 %.not, label %16, label %19

16:                                               ; preds = %3
  %17 = load i32, ptr %13, align 4
  %18 = call i32 (...) @magicNumber() #12
  %.not45 = icmp eq i32 %17, %18
  br i1 %.not45, label %23, label %19

19:                                               ; preds = %16, %3
  call void @llvm.lifetime.start.p0(i64 4, ptr nonnull %11)
  store i32 2, ptr %11, align 4
  %20 = call i64 @write(i32 noundef %1, ptr noundef nonnull %11, i64 noundef 4) #12
  %.not.i = icmp eq i64 %20, 4
  br i1 %.not.i, label %22, label %21

21:                                               ; preds = %19
  call void @exit(i32 noundef 130) #13
  unreachable

22:                                               ; preds = %19
  call void @exit(i32 noundef 1) #13
  unreachable

23:                                               ; preds = %16
  %24 = call i64 @readFully(i32 noundef %0, ptr noundef %2, i64 noundef 96) #12
  %.not46 = icmp eq i64 %24, 96
  br i1 %.not46, label %29, label %25

25:                                               ; preds = %23
  call void @llvm.lifetime.start.p0(i64 4, ptr nonnull %10)
  store i32 2, ptr %10, align 4
  %26 = call i64 @write(i32 noundef %1, ptr noundef nonnull %10, i64 noundef 4) #12
  %.not.i49 = icmp eq i64 %26, 4
  br i1 %.not.i49, label %28, label %27

27:                                               ; preds = %25
  call void @exit(i32 noundef 130) #13
  unreachable

28:                                               ; preds = %25
  call void @exit(i32 noundef 1) #13
  unreachable

29:                                               ; preds = %23
  %30 = call i64 @readFully(i32 noundef %0, ptr noundef nonnull %12, i64 noundef 28) #12
  %.not47 = icmp eq i64 %30, 28
  br i1 %.not47, label %35, label %31

31:                                               ; preds = %29
  call void @llvm.lifetime.start.p0(i64 4, ptr nonnull %9)
  store i32 2, ptr %9, align 4
  %32 = call i64 @write(i32 noundef %1, ptr noundef nonnull %9, i64 noundef 4) #12
  %.not.i51 = icmp eq i64 %32, 4
  br i1 %.not.i51, label %34, label %33

33:                                               ; preds = %31
  call void @exit(i32 noundef 130) #13
  unreachable

34:                                               ; preds = %31
  call void @exit(i32 noundef 1) #13
  unreachable

35:                                               ; preds = %29
  %36 = getelementptr inbounds i8, ptr %12, i64 4
  %37 = load i32, ptr %36, align 4
  %38 = getelementptr inbounds i8, ptr %12, i64 12
  %39 = load i32, ptr %38, align 4
  %40 = add nsw i32 %39, %37
  %41 = getelementptr inbounds i8, ptr %12, i64 16
  %42 = load i32, ptr %41, align 4
  %43 = add nsw i32 %40, %42
  %44 = getelementptr inbounds i8, ptr %12, i64 24
  %45 = load i32, ptr %44, align 4
  %46 = add nsw i32 %43, %45
  %47 = sext i32 %46 to i64
  %48 = call noalias ptr @malloc(i64 noundef %47) #14
  %49 = icmp eq ptr %48, null
  br i1 %49, label %50, label %54

50:                                               ; preds = %35
  call void @llvm.lifetime.start.p0(i64 4, ptr nonnull %8)
  store i32 1, ptr %8, align 4
  %51 = call i64 @write(i32 noundef %1, ptr noundef nonnull %8, i64 noundef 4) #12
  %.not.i53 = icmp eq i64 %51, 4
  br i1 %.not.i53, label %53, label %52

52:                                               ; preds = %50
  call void @exit(i32 noundef 129) #13
  unreachable

53:                                               ; preds = %50
  call void @exit(i32 noundef 1) #13
  unreachable

54:                                               ; preds = %35
  %55 = call i64 @readFully(i32 noundef %0, ptr noundef nonnull %48, i64 noundef %47) #12
  %.not48 = icmp eq i64 %55, %47
  br i1 %.not48, label %60, label %56

56:                                               ; preds = %54
  call void @llvm.lifetime.start.p0(i64 4, ptr nonnull %7)
  store i32 2, ptr %7, align 4
  %57 = call i64 @write(i32 noundef %1, ptr noundef nonnull %7, i64 noundef 4) #12
  %.not.i55 = icmp eq i64 %57, 4
  br i1 %.not.i55, label %59, label %58

58:                                               ; preds = %56
  call void @exit(i32 noundef 130) #13
  unreachable

59:                                               ; preds = %56
  call void @exit(i32 noundef 1) #13
  unreachable

60:                                               ; preds = %54
  %61 = load i32, ptr %12, align 4
  %62 = sext i32 %61 to i64
  %63 = shl nsw i64 %62, 3
  %64 = call noalias ptr @malloc(i64 noundef %63) #14
  %65 = icmp eq ptr %64, null
  br i1 %65, label %66, label %70

66:                                               ; preds = %60
  call void @llvm.lifetime.start.p0(i64 4, ptr nonnull %6)
  store i32 1, ptr %6, align 4
  %67 = call i64 @write(i32 noundef %1, ptr noundef nonnull %6, i64 noundef 4) #12
  %.not.i57 = icmp eq i64 %67, 4
  br i1 %.not.i57, label %69, label %68

68:                                               ; preds = %66
  call void @exit(i32 noundef 129) #13
  unreachable

69:                                               ; preds = %66
  call void @exit(i32 noundef 1) #13
  unreachable

70:                                               ; preds = %60
  %71 = getelementptr inbounds i8, ptr %2, i64 56
  store ptr %64, ptr %71, align 8
  %72 = add nsw i32 %61, -1
  call void @initVectorFromBlock(ptr noundef nonnull %64, ptr noundef nonnull %48, i32 noundef %72) #12
  %73 = load i32, ptr %36, align 4
  %74 = getelementptr inbounds i8, ptr %12, i64 8
  %75 = load i32, ptr %74, align 4
  %76 = icmp eq i32 %75, 0
  br i1 %76, label %77, label %79

77:                                               ; preds = %70
  %78 = getelementptr inbounds i8, ptr %2, i64 72
  store ptr null, ptr %78, align 8
  br label %95

79:                                               ; preds = %70
  %80 = sext i32 %75 to i64
  %81 = shl nsw i64 %80, 3
  %82 = call noalias ptr @malloc(i64 noundef %81) #14
  %83 = icmp eq ptr %82, null
  br i1 %83, label %84, label %88

84:                                               ; preds = %79
  call void @llvm.lifetime.start.p0(i64 4, ptr nonnull %5)
  store i32 1, ptr %5, align 4
  %85 = call i64 @write(i32 noundef %1, ptr noundef nonnull %5, i64 noundef 4) #12
  %.not.i59 = icmp eq i64 %85, 4
  br i1 %.not.i59, label %87, label %86

86:                                               ; preds = %84
  call void @exit(i32 noundef 129) #13
  unreachable

87:                                               ; preds = %84
  call void @exit(i32 noundef 1) #13
  unreachable

88:                                               ; preds = %79
  %89 = getelementptr inbounds i8, ptr %2, i64 72
  store ptr %82, ptr %89, align 8
  %90 = sext i32 %73 to i64
  %91 = getelementptr inbounds i8, ptr %48, i64 %90
  %92 = add nsw i32 %75, -1
  call void @initVectorFromBlock(ptr noundef nonnull %82, ptr noundef nonnull %91, i32 noundef %92) #12
  %93 = load i32, ptr %38, align 4
  %94 = add nsw i32 %93, %73
  br label %95

95:                                               ; preds = %88, %77
  %.0 = phi i32 [ %73, %77 ], [ %94, %88 ]
  %96 = load i32, ptr %41, align 4
  %97 = icmp eq i32 %96, 0
  %98 = sext i32 %.0 to i64
  %99 = getelementptr inbounds i8, ptr %48, i64 %98
  %.sink = select i1 %97, ptr null, ptr %99
  %100 = getelementptr inbounds i8, ptr %2, i64 80
  store ptr %.sink, ptr %100, align 8
  %101 = getelementptr inbounds i8, ptr %12, i64 20
  %102 = load i32, ptr %101, align 4
  %103 = sext i32 %102 to i64
  %104 = shl nsw i64 %103, 3
  %105 = call noalias ptr @malloc(i64 noundef %104) #14
  %106 = icmp eq ptr %105, null
  br i1 %106, label %107, label %111

107:                                              ; preds = %95
  call void @llvm.lifetime.start.p0(i64 4, ptr nonnull %4)
  store i32 1, ptr %4, align 4
  %108 = call i64 @write(i32 noundef %1, ptr noundef nonnull %4, i64 noundef 4) #12
  %.not.i61 = icmp eq i64 %108, 4
  br i1 %.not.i61, label %110, label %109

109:                                              ; preds = %107
  call void @exit(i32 noundef 129) #13
  unreachable

110:                                              ; preds = %107
  call void @exit(i32 noundef 1) #13
  unreachable

111:                                              ; preds = %95
  %112 = add nsw i32 %96, %.0
  store ptr %105, ptr @parentPathv, align 8
  %113 = sext i32 %112 to i64
  %114 = getelementptr inbounds i8, ptr %48, i64 %113
  %115 = add nsw i32 %102, -1
  call void @initVectorFromBlock(ptr noundef nonnull %105, ptr noundef nonnull %114, i32 noundef %115) #12
  ret void
}